; Function Attrs: nounwind uwtable
define dso_local void @addReplyPubsubUnsubscribed(ptr noundef %0, ptr noundef %1, ptr noundef readonly byval(%struct.pubsubtype) align 8 captures(none) %2) local_unnamed_addr #2 {
  %4 = getelementptr inbounds nuw i8, ptr %0, i64 8
  %5 = load i64, ptr %4, align 8, !tbaa !31
  %6 = or i64 %5, 70368744177664
  store i64 %6, ptr %4, align 8, !tbaa !31
  %7 = getelementptr inbounds nuw i8, ptr %0, i64 28
  %8 = load i32, ptr %7, align 4, !tbaa !32
  %9 = icmp eq i32 %8, 2
  br i1 %9, label %10, label %12

10:                                               ; preds = %3
  %11 = load ptr, ptr getelementptr inbounds nuw (i8, ptr @shared, i64 80904), align 8, !tbaa !33
  tail call void @addReply(ptr noundef nonnull %0, ptr noundef %11) #9
  br label %13

12:                                               ; preds = %3
  tail call void @addReplyPushLen(ptr noundef nonnull %0, i64 noundef 3) #9
  br label %13

13:                                               ; preds = %12, %10
  %14 = getelementptr inbounds nuw i8, ptr %2, i64 40
  %15 = load ptr, ptr %14, align 8, !tbaa !40
  %16 = load ptr, ptr %15, align 8, !tbaa !33
  tail call void @addReply(ptr noundef nonnull %0, ptr noundef %16) #9
  %.not = icmp eq ptr %1, null
  br i1 %.not, label %18, label %17

17:                                               ; preds = %13
  tail call void @addReplyBulk(ptr noundef nonnull %0, ptr noundef nonnull %1) #9
  br label %19

18:                                               ; preds = %13
  tail call void @addReplyNull(ptr noundef nonnull %0) #9
  br label %19

19:                                               ; preds = %18, %17
  %20 = getelementptr inbounds nuw i8, ptr %2, i64 16
  %21 = load ptr, ptr %20, align 8, !tbaa !39
  %22 = tail call i32 %21(ptr noundef nonnull %0) #9
  %23 = sext i32 %22 to i64
  tail call void @addReplyLongLong(ptr noundef nonnull %0, i64 noundef %23) #9
  %24 = and i64 %5, 70368744177664
  %.not13 = icmp eq i64 %24, 0
  br i1 %.not13, label %25, label %28

25:                                               ; preds = %19
  %26 = load i64, ptr %4, align 8, !tbaa !31
  %27 = and i64 %26, -70368744177665
  store i64 %27, ptr %4, align 8, !tbaa !31
  br label %28

28:                                               ; preds = %25, %19
  ret void
}